; Function Attrs: mustprogress uwtable
define noundef i64 @_ZN10open_spiel26bridge_uncontested_bidding16ActionFromStringERKNSt7__cxx1112basic_stringIcSt11char_traitsIcESaIcEEE(ptr noundef nonnull align 8 dereferenceable(32) %0) local_unnamed_addr #3 personality ptr @__gxx_personality_v0 {
  %2 = alloca i64, align 8
  %3 = alloca i32, align 4
  %4 = alloca %"class.std::__cxx11::basic_string", align 8
  %5 = alloca i32, align 4
  %6 = alloca %"class.std::__cxx11::basic_string", align 8
  %7 = alloca %"class.std::allocator", align 1
  %8 = alloca i64, align 8
  %9 = alloca i64, align 8
  %10 = alloca %"class.std::__cxx11::basic_string", align 8
  %11 = alloca i32, align 4
  %12 = tail call noundef i32 @_ZNKSt7__cxx1112basic_stringIcSt11char_traitsIcESaIcEE7compareEPKc(ptr noundef nonnull align 8 dereferenceable(32) %0, ptr noundef nonnull @.str.11) #26
  %13 = icmp eq i32 %12, 0
  br i1 %13, label %41, label %14

14:                                               ; preds = %1
  %15 = tail call noundef i64 @_ZNKSt7__cxx1112basic_stringIcSt11char_traitsIcESaIcEE6lengthEv(ptr noundef nonnull align 8 dereferenceable(32) %0) #26
  store i64 %15, ptr %2, align 8
  store i32 2, ptr %3, align 4
  %16 = icmp eq i64 %15, 2
  br i1 %16, label %21, label %17

17:                                               ; preds = %14
  store i32 120, ptr %5, align 4
  call void @_ZN10open_spiel8internal11SpielStrCatIJRA152_KcRA2_S2_iS6_RA18_S2_RA14_S2_RA4_S2_RmRA7_S2_RiEEENSt7__cxx1112basic_stringIcSt11char_traitsIcESaIcEEEDpOT_(ptr dead_on_unwind nonnull writable sret(%"class.std::__cxx11::basic_string") align 8 %4, ptr noundef nonnull align 1 dereferenceable(152) @.str.12, ptr noundef nonnull align 1 dereferenceable(2) @.str.13, ptr noundef nonnull align 4 dereferenceable(4) %5, ptr noundef nonnull align 1 dereferenceable(2) @.str.14, ptr noundef nonnull align 1 dereferenceable(18) @.str.15, ptr noundef nonnull align 1 dereferenceable(14) @.str.16, ptr noundef nonnull align 1 dereferenceable(4) @.str.17, ptr noundef nonnull align 8 dereferenceable(8) %2, ptr noundef nonnull align 1 dereferenceable(7) @.str.18, ptr noundef nonnull align 4 dereferenceable(4) %3)
  invoke void @_ZN10open_spiel15SpielFatalErrorERKNSt7__cxx1112basic_stringIcSt11char_traitsIcESaIcEEE(ptr noundef nonnull align 8 dereferenceable(32) %4) #25
          to label %18 unwind label %19

18:                                               ; preds = %17
  unreachable

19:                                               ; preds = %17
  %20 = landingpad { ptr, i32 }
          cleanup
  call void @_ZNSt7__cxx1112basic_stringIcSt11char_traitsIcESaIcEED1Ev(ptr noundef nonnull align 8 dereferenceable(32) %4) #26
  br label %42

21:                                               ; preds = %14
  %22 = tail call noundef nonnull align 1 dereferenceable(1) ptr @_ZNKSt7__cxx1112basic_stringIcSt11char_traitsIcESaIcEEixEm(ptr noundef nonnull align 8 dereferenceable(32) %0, i64 noundef 0) #26
  %23 = load i8, ptr %22, align 1
  %24 = sext i8 %23 to i64
  call void @_ZNSaIcEC1Ev(ptr noundef nonnull align 1 dereferenceable(1) %7) #26
  %25 = invoke noundef ptr @_ZNSt7__cxx1112basic_stringIcSt11char_traitsIcESaIcEE13_M_local_dataEv(ptr noundef nonnull align 8 dereferenceable(32) %6)
          to label %.noexc unwind label %33

.noexc:                                           ; preds = %21
  invoke void @_ZNSt7__cxx1112basic_stringIcSt11char_traitsIcESaIcEE12_Alloc_hiderC1EPcRKS3_(ptr noundef nonnull align 8 dereferenceable(32) %6, ptr noundef %25, ptr noundef nonnull align 1 dereferenceable(1) %7)
          to label %.noexc12 unwind label %33

.noexc12:                                         ; preds = %.noexc
  invoke void @_ZNSt7__cxx1112basic_stringIcSt11char_traitsIcESaIcEE12_M_constructIPKcEEvT_S8_St20forward_iterator_tag(ptr noundef nonnull align 8 dereferenceable(32) %6, ptr noundef nonnull @_ZN10open_spiel6bridgeL17kDenominationCharE, ptr noundef nonnull getelementptr inbounds nuw (i8, ptr @_ZN10open_spiel6bridgeL17kDenominationCharE, i64 5))
          to label %_ZNSt7__cxx1112basic_stringIcSt11char_traitsIcESaIcEEC2IS3_EEPKcRKS3_.exit unwind label %26

26:                                               ; preds = %.noexc12
  %27 = landingpad { ptr, i32 }
          cleanup
  call void @_ZNSaIcED2Ev(ptr noundef nonnull align 8 dereferenceable(32) %6) #26
  br label %.body

_ZNSt7__cxx1112basic_stringIcSt11char_traitsIcESaIcEEC2IS3_EEPKcRKS3_.exit: ; preds = %.noexc12
  %28 = call noundef nonnull align 1 dereferenceable(1) ptr @_ZNKSt7__cxx1112basic_stringIcSt11char_traitsIcESaIcEEixEm(ptr noundef nonnull align 8 dereferenceable(32) %0, i64 noundef 1) #26
  %29 = load i8, ptr %28, align 1
  %30 = call noundef i64 @_ZNKSt7__cxx1112basic_stringIcSt11char_traitsIcESaIcEE4findEcm(ptr noundef nonnull align 8 dereferenceable(32) %6, i8 noundef signext %29, i64 noundef 0) #26
  call void @_ZNSt7__cxx1112basic_stringIcSt11char_traitsIcESaIcEED1Ev(ptr noundef nonnull align 8 dereferenceable(32) %6) #26
  call void @_ZNSaIcED1Ev(ptr noundef nonnull align 1 dereferenceable(1) %7) #26
  store i64 %30, ptr %8, align 8
  store i64 -1, ptr %9, align 8
  %.not = icmp eq i64 %30, -1
  br i1 %.not, label %31, label %37

31:                                               ; preds = %_ZNSt7__cxx1112basic_stringIcSt11char_traitsIcESaIcEEC2IS3_EEPKcRKS3_.exit
  store i32 123, ptr %11, align 4
  call void @_ZN10open_spiel8internal11SpielStrCatIJRA152_KcRA2_S2_iS6_RA34_S2_RA14_S2_RA4_S2_RmRA23_S2_SD_EEENSt7__cxx1112basic_stringIcSt11char_traitsIcESaIcEEEDpOT_(ptr dead_on_unwind nonnull writable sret(%"class.std::__cxx11::basic_string") align 8 %10, ptr noundef nonnull align 1 dereferenceable(152) @.str.12, ptr noundef nonnull align 1 dereferenceable(2) @.str.13, ptr noundef nonnull align 4 dereferenceable(4) %11, ptr noundef nonnull align 1 dereferenceable(2) @.str.14, ptr noundef nonnull align 1 dereferenceable(34) @.str.19, ptr noundef nonnull align 1 dereferenceable(14) @.str.20, ptr noundef nonnull align 1 dereferenceable(4) @.str.17, ptr noundef nonnull align 8 dereferenceable(8) %8, ptr noundef nonnull align 1 dereferenceable(23) @.str.21, ptr noundef nonnull align 8 dereferenceable(8) %9)
  invoke void @_ZN10open_spiel15SpielFatalErrorERKNSt7__cxx1112basic_stringIcSt11char_traitsIcESaIcEEE(ptr noundef nonnull align 8 dereferenceable(32) %10) #25
          to label %32 unwind label %35

32:                                               ; preds = %31
  unreachable

33:                                               ; preds = %.noexc, %21
  %34 = landingpad { ptr, i32 }
          cleanup
  br label %.body

.body:                                            ; preds = %26, %33
  %eh.lpad-body = phi { ptr, i32 } [ %34, %33 ], [ %27, %26 ]
  call void @_ZNSaIcED1Ev(ptr noundef nonnull align 1 dereferenceable(1) %7) #26
  br label %42

35:                                               ; preds = %31
  %36 = landingpad { ptr, i32 }
          cleanup
  call void @_ZNSt7__cxx1112basic_stringIcSt11char_traitsIcESaIcEED1Ev(ptr noundef nonnull align 8 dereferenceable(32) %10) #26
  br label %42

37:                                               ; preds = %_ZNSt7__cxx1112basic_stringIcSt11char_traitsIcESaIcEEC2IS3_EEPKcRKS3_.exit
  %38 = mul nsw i64 %24, 5
  %39 = add nsw i64 %38, -244
  %40 = add i64 %39, %30
  br label %41

41:                                               ; preds = %1, %37
  %.0 = phi i64 [ %40, %37 ], [ 0, %1 ]
  ret i64 %.0

42:                                               ; preds = %35, %.body, %19
  %.pn = phi { ptr, i32 } [ %36, %35 ], [ %eh.lpad-body, %.body ], [ %20, %19 ]
  resume { ptr, i32 } %.pn
}